; Function Attrs: nounwind uwtable
define internal i32 @filter_frame(ptr noundef readonly captures(none) %0, ptr noundef %1) #1 {
  %3 = alloca ptr, align 8
  %4 = alloca %struct.ThreadData, align 8
  store ptr %1, ptr %3, align 8, !tbaa !4
  %5 = getelementptr inbounds nuw i8, ptr %0, i64 16
  %6 = load ptr, ptr %5, align 8, !tbaa !9
  %7 = getelementptr inbounds nuw i8, ptr %6, i64 72
  %8 = load ptr, ptr %7, align 8, !tbaa !21
  %9 = getelementptr inbounds nuw i8, ptr %6, i64 56
  %10 = load ptr, ptr %9, align 8, !tbaa !31
  %11 = load ptr, ptr %10, align 8, !tbaa !32
  call void @llvm.lifetime.start.p0(i64 16, ptr nonnull %4) #7
  %12 = tail call i32 @av_frame_is_writable(ptr noundef %1) #7
  %.not = icmp eq i32 %12, 0
  br i1 %.not, label %13, label %22

13:                                               ; preds = %2
  %14 = getelementptr inbounds nuw i8, ptr %11, i64 40
  %15 = load i32, ptr %14, align 8, !tbaa !34
  %16 = getelementptr inbounds nuw i8, ptr %11, i64 44
  %17 = load i32, ptr %16, align 4, !tbaa !35
  %18 = tail call ptr @ff_get_video_buffer(ptr noundef %11, i32 noundef %15, i32 noundef %17) #7
  %.not22 = icmp eq ptr %18, null
  br i1 %.not22, label %19, label %20

19:                                               ; preds = %13
  call void @av_frame_free(ptr noundef nonnull %3) #7
  br label %34

20:                                               ; preds = %13
  %21 = tail call i32 @av_frame_copy_props(ptr noundef nonnull %18, ptr noundef %1) #7
  br label %22

22:                                               ; preds = %2, %20
  %.0 = phi ptr [ %18, %20 ], [ %1, %2 ]
  store ptr %1, ptr %4, align 8, !tbaa !36
  %23 = getelementptr inbounds nuw i8, ptr %4, i64 8
  store ptr %.0, ptr %23, align 8, !tbaa !38
  %24 = getelementptr inbounds nuw i8, ptr %8, i64 64
  %25 = load ptr, ptr %24, align 8, !tbaa !39
  %26 = getelementptr inbounds nuw i8, ptr %11, i64 44
  %27 = load i32, ptr %26, align 4, !tbaa !35
  %28 = tail call i32 @ff_filter_get_nb_threads(ptr noundef nonnull %6) #8
  %. = tail call i32 @llvm.smin.i32(i32 %27, i32 %28)
  %29 = call i32 @ff_filter_execute(ptr noundef nonnull %6, ptr noundef %25, ptr noundef nonnull %4, ptr noundef null, i32 noundef %.) #7
  %30 = load ptr, ptr %3, align 8, !tbaa !4
  %.not23 = icmp eq ptr %30, %.0
  br i1 %.not23, label %32, label %31

31:                                               ; preds = %22
  call void @av_frame_free(ptr noundef nonnull %3) #7
  br label %32

32:                                               ; preds = %31, %22
  %33 = call i32 @ff_filter_frame(ptr noundef nonnull %11, ptr noundef %.0) #7
  br label %34

34:                                               ; preds = %32, %19
  %.018 = phi i32 [ %33, %32 ], [ -12, %19 ]
  call void @llvm.lifetime.end.p0(i64 16, ptr nonnull %4) #7
  ret i32 %.018
}